	.file	"cortos_bget.c"
	.section	".text"
.Ltext0:
	.cfi_sections	.debug_frame
	.global bgetLockAddr
	.section	".bss"
	.align 4
	.type	bgetLockAddr, #object
	.size	bgetLockAddr, 4
bgetLockAddr:
	.skip	4
	.global bgetNcramLockAddr
	.align 4
	.type	bgetNcramLockAddr, #object
	.size	bgetNcramLockAddr, 4
bgetNcramLockAddr:
	.skip	4
	.section	".text"
	.align 4
	.global __cortos_bpool
	.type	__cortos_bpool, #function
	.proc	020
__cortos_bpool:
.LFB0:
	.file 1 "cortos_src/cortos_bget.c"
	.loc 1 16 0
	.cfi_startproc
	save	%sp, -104, %sp
.LCFI0:
	.cfi_window_save
	.cfi_register 15, 31
	.cfi_def_cfa_register 30
	.loc 1 17 0
	sethi	%hi(bgetLockAddr), %g1
	or	%g1, %lo(bgetLockAddr), %g1
	ld	[%g1], %g1
	cmp	%g1, 0
	bne	.L1
	 nop
.LBB2:
	.loc 1 19 0
	sethi	%hi(1073844224), %o0
	sethi	%hi(4096), %o1
	call	bpool, 0
	 nop
	.loc 1 22 0
	sethi	%hi(1073840128), %g1
	st	%g1, [%fp-4]
	.loc 1 23 0
	sethi	%hi(allocatedLocksNc), %g1
	or	%g1, %lo(allocatedLocksNc), %g1
	mov	1, %g2
	stb	%g2, [%g1+2]
	.loc 1 24 0
	ld	[%fp-4], %g1
	add	%g1, 2, %g2
	sethi	%hi(bgetLockAddr), %g1
	or	%g1, %lo(bgetLockAddr), %g1
	st	%g2, [%g1]
.L1:
.LBE2:
	.loc 1 26 0
	restore
	jmp	%o7+8
	 nop
	.cfi_endproc
.LFE0:
	.size	__cortos_bpool, .-__cortos_bpool
	.align 4
	.global cortos_bget
	.type	cortos_bget, #function
	.proc	0120
cortos_bget:
.LFB1:
	.loc 1 30 0
	.cfi_startproc
	save	%sp, -104, %sp
.LCFI1:
	.cfi_window_save
	.cfi_register 15, 31
	.cfi_def_cfa_register 30
	st	%i0, [%fp+68]
	.loc 1 31 0
	st	%g0, [%fp-4]
	.loc 1 32 0
	sethi	%hi(bgetLockAddr), %g1
	or	%g1, %lo(bgetLockAddr), %g1
	ld	[%g1], %g1
	mov	%g1, %o0
	call	cortos_lock_acquire_buzy, 0
	 nop
	.loc 1 34 0
	ld	[%fp+68], %o0
	call	bget, 0
	 nop
	st	%o0, [%fp-4]
	.loc 1 36 0
	sethi	%hi(bgetLockAddr), %g1
	or	%g1, %lo(bgetLockAddr), %g1
	ld	[%g1], %g1
	mov	%g1, %o0
	call	cortos_lock_release, 0
	 nop
	.loc 1 38 0
	ld	[%fp-4], %g1
	.loc 1 39 0
	mov	%g1, %i0
	restore
	jmp	%o7+8
	 nop
	.cfi_endproc
.LFE1:
	.size	cortos_bget, .-cortos_bget
	.align 4
	.global cortos_brel
	.type	cortos_brel, #function
	.proc	020
cortos_brel:
.LFB2:
	.loc 1 43 0
	.cfi_startproc
	save	%sp, -96, %sp
.LCFI2:
	.cfi_window_save
	.cfi_register 15, 31
	.cfi_def_cfa_register 30
	st	%i0, [%fp+68]
	.loc 1 44 0
	sethi	%hi(bgetLockAddr), %g1
	or	%g1, %lo(bgetLockAddr), %g1
	ld	[%g1], %g1
	mov	%g1, %o0
	call	cortos_lock_acquire_buzy, 0
	 nop
	.loc 1 46 0
	ld	[%fp+68], %o0
	call	brel, 0
	 nop
	.loc 1 48 0
	sethi	%hi(bgetLockAddr), %g1
	or	%g1, %lo(bgetLockAddr), %g1
	ld	[%g1], %g1
	mov	%g1, %o0
	call	cortos_lock_release, 0
	 nop
	.loc 1 49 0
	restore
	jmp	%o7+8
	 nop
	.cfi_endproc
.LFE2:
	.size	cortos_brel, .-cortos_brel
	.align 4
	.global __cortos_bpool_ncram
	.type	__cortos_bpool_ncram, #function
	.proc	020
__cortos_bpool_ncram:
.LFB3:
	.loc 1 56 0
	.cfi_startproc
	save	%sp, -104, %sp
.LCFI3:
	.cfi_window_save
	.cfi_register 15, 31
	.cfi_def_cfa_register 30
	.loc 1 57 0
	sethi	%hi(bgetNcramLockAddr), %g1
	or	%g1, %lo(bgetNcramLockAddr), %g1
	ld	[%g1], %g1
	cmp	%g1, 0
	bne	.L6
	 nop
.LBB3:
	.loc 1 58 0
	mov	0, %o0
	mov	-1, %o1
	call	bpool_ncram, 0
	 nop
	.loc 1 61 0
	sethi	%hi(1073840128), %g1
	st	%g1, [%fp-4]
	.loc 1 62 0
	sethi	%hi(allocatedLocksNc), %g1
	or	%g1, %lo(allocatedLocksNc), %g1
	mov	1, %g2
	stb	%g2, [%g1+3]
	.loc 1 63 0
	ld	[%fp-4], %g1
	add	%g1, 3, %g2
	sethi	%hi(bgetNcramLockAddr), %g1
	or	%g1, %lo(bgetNcramLockAddr), %g1
	st	%g2, [%g1]
.L6:
.LBE3:
	.loc 1 65 0
	restore
	jmp	%o7+8
	 nop
	.cfi_endproc
.LFE3:
	.size	__cortos_bpool_ncram, .-__cortos_bpool_ncram
	.align 4
	.global cortos_bget_ncram
	.type	cortos_bget_ncram, #function
	.proc	0120
cortos_bget_ncram:
.LFB4:
	.loc 1 69 0
	.cfi_startproc
	save	%sp, -104, %sp
.LCFI4:
	.cfi_window_save
	.cfi_register 15, 31
	.cfi_def_cfa_register 30
	st	%i0, [%fp+68]
	.loc 1 70 0
	st	%g0, [%fp-4]
	.loc 1 71 0
	sethi	%hi(bgetNcramLockAddr), %g1
	or	%g1, %lo(bgetNcramLockAddr), %g1
	ld	[%g1], %g1
	mov	%g1, %o0
	call	cortos_lock_acquire_buzy, 0
	 nop
	.loc 1 73 0
	ld	[%fp+68], %o0
	call	bget_ncram, 0
	 nop
	st	%o0, [%fp-4]
	.loc 1 75 0
	sethi	%hi(bgetNcramLockAddr), %g1
	or	%g1, %lo(bgetNcramLockAddr), %g1
	ld	[%g1], %g1
	mov	%g1, %o0
	call	cortos_lock_release, 0
	 nop
	.loc 1 77 0
	ld	[%fp-4], %g1
	.loc 1 78 0
	mov	%g1, %i0
	restore
	jmp	%o7+8
	 nop
	.cfi_endproc
.LFE4:
	.size	cortos_bget_ncram, .-cortos_bget_ncram
	.align 4
	.global cortos_brel_ncram
	.type	cortos_brel_ncram, #function
	.proc	020
cortos_brel_ncram:
.LFB5:
	.loc 1 82 0
	.cfi_startproc
	save	%sp, -96, %sp
.LCFI5:
	.cfi_window_save
	.cfi_register 15, 31
	.cfi_def_cfa_register 30
	st	%i0, [%fp+68]
	.loc 1 83 0
	sethi	%hi(bgetNcramLockAddr), %g1
	or	%g1, %lo(bgetNcramLockAddr), %g1
	ld	[%g1], %g1
	mov	%g1, %o0
	call	cortos_lock_acquire_buzy, 0
	 nop
	.loc 1 85 0
	ld	[%fp+68], %o0
	call	brel_ncram, 0
	 nop
	.loc 1 87 0
	sethi	%hi(bgetNcramLockAddr), %g1
	or	%g1, %lo(bgetNcramLockAddr), %g1
	ld	[%g1], %g1
	mov	%g1, %o0
	call	cortos_lock_release, 0
	 nop
	.loc 1 88 0
	restore
	jmp	%o7+8
	 nop
	.cfi_endproc
.LFE5:
	.size	cortos_brel_ncram, .-cortos_brel_ncram
.Letext0:
	.file 2 "/home/ajit/ajit-toolchain/build/buildroot-2014.08/output/host/usr/lib/gcc/sparc-buildroot-linux-uclibc/4.7.4/include/stdint-gcc.h"
	.file 3 "cortos_src/cortos_bget.h"
	.file 4 "cortos_src/cortos_locks.h"
	.section	.note.GNU-stack,"",@progbits
