	.file	"NTT.c"
	.section	".text"
.Ltext0:
	.cfi_sections	.debug_frame
	.global done_0
	.section	".bss"
	.align 4
	.type	done_0, #object
	.size	done_0, 4
done_0:
	.skip	4
	.global done_1
	.align 4
	.type	done_1, #object
	.size	done_1, 4
done_1:
	.skip	4
	.section	".text"
	.align 4
	.global bit_reverse
	.type	bit_reverse, #function
	.proc	015
bit_reverse:
.LFB3:
	.file 1 "../NTT.c"
	.loc 1 25 0
	.cfi_startproc
	save	%sp, -104, %sp
.LCFI0:
	.cfi_window_save
	.cfi_register 15, 31
	.cfi_def_cfa_register 30
	mov	%i0, %g2
	mov	%i1, %g1
	sth	%g2, [%fp+68]
	sth	%g1, [%fp+72]
	.loc 1 26 0
	sth	%g0, [%fp-2]
	.loc 1 28 0
	sth	%g0, [%fp-4]
	b	.L2
	 nop
.L4:
	.loc 1 29 0
	lduh	[%fp+68], %g1
	sll	%g1, 16, %g1
	srl	%g1, 16, %g2
	lduh	[%fp-4], %g1
	sll	%g1, 16, %g1
	srl	%g1, 16, %g1
	sra	%g2, %g1, %g1
	and	%g1, 1, %g1
	cmp	%g1, 0
	be	.L3
	 nop
	.loc 1 30 0
	lduh	[%fp+72], %g1
	sll	%g1, 16, %g1
	srl	%g1, 16, %g1
	add	%g1, -1, %g2
	lduh	[%fp-4], %g1
	sll	%g1, 16, %g1
	srl	%g1, 16, %g1
	sub	%g2, %g1, %g1
	mov	1, %g2
	sll	%g2, %g1, %g1
	mov	%g1, %g2
	lduh	[%fp-2], %g1
	or	%g2, %g1, %g1
	sth	%g1, [%fp-2]
.L3:
	.loc 1 28 0
	lduh	[%fp-4], %g1
	add	%g1, 1, %g1
	sth	%g1, [%fp-4]
.L2:
	.loc 1 28 0 is_stmt 0 discriminator 1
	lduh	[%fp-4], %g1
	sll	%g1, 16, %g1
	srl	%g1, 16, %g2
	lduh	[%fp+72], %g1
	sll	%g1, 16, %g1
	srl	%g1, 16, %g1
	cmp	%g2, %g1
	blu	.L4
	 nop
	.loc 1 33 0 is_stmt 1
	lduh	[%fp-2], %g1
	sll	%g1, 16, %g1
	srl	%g1, 16, %g1
	.loc 1 34 0
	mov	%g1, %i0
	restore
	jmp	%o7+8
	 nop
	.cfi_endproc
.LFE3:
	.size	bit_reverse, .-bit_reverse
	.align 4
	.global barret_reduction
	.type	barret_reduction, #function
	.proc	015
barret_reduction:
.LFB4:
	.loc 1 36 0
	.cfi_startproc
	save	%sp, -128, %sp
.LCFI1:
	.cfi_window_save
	.cfi_register 15, 31
	.cfi_def_cfa_register 30
	mov	%i0, %g1
	sth	%g1, [%fp+68]
	.loc 1 37 0
	sth	%g0, [%fp-4]
	.loc 1 38 0
	sethi	%hi(4096), %g1
	or	%g1, 943, %g1
	sth	%g1, [%fp-6]
	.loc 1 40 0
	lduh	[%fp-6], %g1
	sll	%g1, 16, %g1
	srl	%g1, 16, %g1
	mov	0, %i2
	mov	%g1, %i3
	lduh	[%fp+68], %g1
	sll	%g1, 16, %g1
	srl	%g1, 16, %g1
	mov	0, %i4
	mov	%g1, %i5
	smul	%i2, %i5, %g4
	smul	%i4, %i3, %g1
	add	%g4, %g1, %g1
	umul	%i3, %i5, %i5
	rd	%y, %i4
	add	%g1, %i4, %g1
	mov	%g1, %i4
	std	%i4, [%fp-16]
	std	%i4, [%fp-16]
	.loc 1 41 0
	ld	[%fp-16], %g1
	sll	%g1, 8, %g1
	ld	[%fp-12], %g4
	srl	%g4, 24, %g3
	or	%g1, %g3, %g3
	ld	[%fp-16], %g1
	srl	%g1, 24, %g2
	sth	%g3, [%fp-18]
	.loc 1 42 0
	lduh	[%fp-4], %g1
	sll	%g1, 16, %g1
	srl	%g1, 16, %g1
	mov	0, %i4
	mov	%g1, %i5
	lduh	[%fp-18], %g1
	sll	%g1, 16, %g1
	srl	%g1, 16, %g1
	mov	0, %g2
	mov	%g1, %g3
	smul	%i4, %g3, %g4
	smul	%g2, %i5, %g1
	add	%g4, %g1, %g1
	umul	%i5, %g3, %g3
	rd	%y, %g2
	add	%g1, %g2, %g1
	mov	%g1, %g2
	std	%g2, [%fp-32]
	std	%g2, [%fp-32]
	.loc 1 43 0
	ld	[%fp-28], %g1
	lduh	[%fp+68], %g2
	sub	%g2, %g1, %g1
	sth	%g1, [%fp-2]
	.loc 1 44 0
	lduh	[%fp-2], %g1
	sll	%g1, 16, %g1
	srl	%g1, 16, %g2
	lduh	[%fp-4], %g1
	sll	%g1, 16, %g1
	srl	%g1, 16, %g1
	cmp	%g2, %g1
	bleu	.L7
	 nop
	.loc 1 45 0
	lduh	[%fp-2], %g2
	lduh	[%fp-4], %g1
	sub	%g2, %g1, %g1
	sth	%g1, [%fp-2]
.L7:
	.loc 1 47 0
	lduh	[%fp-2], %g1
	sll	%g1, 16, %g1
	srl	%g1, 16, %g1
	.loc 1 48 0
	mov	%g1, %i0
	restore
	jmp	%o7+8
	 nop
	.cfi_endproc
.LFE4:
	.size	barret_reduction, .-barret_reduction
	.align 4
	.global addr_gen
	.type	addr_gen, #function
	.proc	020
addr_gen:
.LFB5:
	.loc 1 50 0
	.cfi_startproc
	save	%sp, -104, %sp
.LCFI2:
	.cfi_window_save
	.cfi_register 15, 31
	.cfi_def_cfa_register 30
	mov	%i0, %g4
	mov	%i1, %g3
	mov	%i2, %g2
	mov	%i3, %g1
	st	%i4, [%fp+84]
	st	%i5, [%fp+88]
	sth	%g4, [%fp+68]
	sth	%g3, [%fp+72]
	sth	%g2, [%fp+76]
	sth	%g1, [%fp+80]
	.loc 1 51 0
	lduh	[%fp+68], %g1
	sll	%g1, 16, %g1
	srl	%g1, 16, %g2
	lduh	[%fp+76], %g1
	sll	%g1, 16, %g1
	srl	%g1, 16, %g1
	add	%g1, -1, %g3
	lduh	[%fp+72], %g1
	sll	%g1, 16, %g1
	srl	%g1, 16, %g1
	sub	%g3, %g1, %g1
	sra	%g2, %g1, %g1
	sth	%g1, [%fp-2]
	.loc 1 52 0
	lduh	[%fp+80], %g1
	sll	%g1, 16, %g1
	srl	%g1, 16, %g2
	lduh	[%fp+72], %g1
	sll	%g1, 16, %g1
	srl	%g1, 16, %g1
	sra	%g2, %g1, %g1
	add	%g1, -1, %g1
	mov	%g1, %g2
	lduh	[%fp+68], %g1
	and	%g2, %g1, %g1
	sth	%g1, [%fp-4]
	.loc 1 53 0
	lduh	[%fp-2], %g1
	sll	%g1, 16, %g1
	srl	%g1, 16, %g2
	lduh	[%fp+76], %g1
	sll	%g1, 16, %g1
	srl	%g1, 16, %g3
	lduh	[%fp+72], %g1
	sll	%g1, 16, %g1
	srl	%g1, 16, %g1
	sub	%g3, %g1, %g1
	sll	%g2, %g1, %g1
	mov	%g1, %g2
	lduh	[%fp-4], %g1
	add	%g2, %g1, %g1
	mov	%g1, %g2
	ld	[%fp+84], %g1
	sth	%g2, [%g1]
	.loc 1 54 0
	ld	[%fp+84], %g1
	lduh	[%g1], %g2
	lduh	[%fp+76], %g1
	sll	%g1, 16, %g1
	srl	%g1, 16, %g3
	lduh	[%fp+72], %g1
	sll	%g1, 16, %g1
	srl	%g1, 16, %g1
	sub	%g3, %g1, %g1
	add	%g1, -1, %g1
	mov	1, %g3
	sll	%g3, %g1, %g1
	add	%g2, %g1, %g1
	mov	%g1, %g2
	ld	[%fp+88], %g1
	sth	%g2, [%g1]
	.loc 1 55 0
	lduh	[%fp+72], %g1
	sll	%g1, 16, %g1
	srl	%g1, 16, %g1
	mov	1, %g2
	sll	%g2, %g1, %g1
	mov	%g1, %g2
	lduh	[%fp+68], %g1
	sll	%g1, 16, %g1
	srl	%g1, 16, %g3
	lduh	[%fp+76], %g1
	sll	%g1, 16, %g1
	srl	%g1, 16, %g4
	lduh	[%fp+72], %g1
	sll	%g1, 16, %g1
	srl	%g1, 16, %g1
	sub	%g4, %g1, %g1
	add	%g1, -1, %g1
	sra	%g3, %g1, %g1
	add	%g2, %g1, %g1
	mov	%g1, %g2
	ld	[%fp+92], %g1
	sth	%g2, [%g1]
	.loc 1 56 0
	restore
	jmp	%o7+8
	 nop
	.cfi_endproc
.LFE5:
	.size	addr_gen, .-addr_gen
	.global __umoddi3
	.align 4
	.global butterfly_dit
	.type	butterfly_dit, #function
	.proc	020
butterfly_dit:
.LFB6:
	.loc 1 59 0
	.cfi_startproc
	save	%sp, -104, %sp
.LCFI3:
	.cfi_window_save
	.cfi_register 15, 31
	.cfi_def_cfa_register 30
	mov	%i0, %g3
	mov	%i1, %g2
	mov	%i2, %g1
	st	%i3, [%fp+80]
	st	%i4, [%fp+84]
	sth	%g3, [%fp+68]
	sth	%g2, [%fp+72]
	sth	%g1, [%fp+76]
	.loc 1 60 0
	lduh	[%fp+68], %g1
	sll	%g1, 16, %g1
	srl	%g1, 16, %g1
	mov	0, %i4
	mov	%g1, %i5
	lduh	[%fp+76], %g1
	sll	%g1, 16, %g1
	srl	%g1, 16, %g1
	mov	0, %g2
	mov	%g1, %g3
	smul	%i4, %g3, %g4
	smul	%g2, %i5, %g1
	add	%g4, %g1, %g1
	umul	%i5, %g3, %g3
	rd	%y, %g2
	add	%g1, %g2, %g1
	mov	%g1, %g2
	mov	%g2, %o0
	mov	%g3, %o1
	mov	0, %o2
	mov	3329, %o3
	call	__umoddi3, 0
	 nop
	mov	%o0, %g2
	mov	%o1, %g3
	mov	%g3, %g1
	sll	%g1, 16, %g1
	srl	%g1, 16, %g1
	mov	%g1, %o0
	call	barret_reduction, 0
	 nop
	mov	%o0, %g1
	sth	%g1, [%fp-2]
	.loc 1 61 0
	lduh	[%fp+72], %g1
	sll	%g1, 16, %g1
	srl	%g1, 16, %g2
	lduh	[%fp-2], %g1
	sll	%g1, 16, %g1
	srl	%g1, 16, %g1
	add	%g2, %g1, %g1
	sra	%g1, 31, %g3
	wr	%g3, 0, %y
	nop
	nop
	nop
	sdiv	%g1, 3329, %g2
	smul	%g2, 3329, %g2
	sub	%g1, %g2, %g1
	mov	%g1, %g2
	ld	[%fp+80], %g1
	sth	%g2, [%g1]
	.loc 1 62 0
	lduh	[%fp+72], %g1
	sll	%g1, 16, %g1
	srl	%g1, 16, %g2
	lduh	[%fp-2], %g1
	sll	%g1, 16, %g1
	srl	%g1, 16, %g1
	sub	%g2, %g1, %g1
	add	%g1, 3329, %g1
	sra	%g1, 31, %g3
	wr	%g3, 0, %y
	nop
	nop
	nop
	sdiv	%g1, 3329, %g2
	smul	%g2, 3329, %g2
	sub	%g1, %g2, %g1
	mov	%g1, %g2
	ld	[%fp+84], %g1
	sth	%g2, [%g1]
	.loc 1 63 0
	restore
	jmp	%o7+8
	 nop
	.cfi_endproc
.LFE6:
	.size	butterfly_dit, .-butterfly_dit
	.section	".rodata"
	.align 8
.LC0:
	.long	1080033280
	.long	0
	.section	".text"
	.align 4
	.global ct_ntt
	.type	ct_ntt, #function
	.proc	020
ct_ntt:
.LFB7:
	.loc 1 66 0
	.cfi_startproc
	save	%sp, -144, %sp
.LCFI4:
	.cfi_window_save
	.cfi_register 15, 31
	.cfi_def_cfa_register 30
	st	%i0, [%fp+68]
	st	%i1, [%fp+72]
	.loc 1 68 0
	sethi	%hi(.LC0), %g1
	or	%g1, %lo(.LC0), %g1
	ldd	[%g1], %f8
	std	%f8, [%fp-32]
	ldd	[%fp-32], %o0
	call	log2, 0
	 nop
	fmovs	%f0, %f8
	fmovs	%f1, %f9
	fdtoi	%f8, %f10
	st	%f10, [%fp-36]
	ld	[%fp-36], %g1
	sth	%g1, [%fp-6]
	.loc 1 69 0
	mov	64, %g1
	sth	%g1, [%fp-8]
	.loc 1 71 0
	sth	%g0, [%fp-2]
	b	.L12
	 nop
.L15:
	.loc 1 72 0
	sth	%g0, [%fp-4]
	b	.L13
	 nop
.L14:
.LBB2:
	.loc 1 74 0 discriminator 2
	lduh	[%fp-4], %g1
	sll	%g1, 16, %g1
	srl	%g1, 16, %i4
	lduh	[%fp-2], %g1
	sll	%g1, 16, %g1
	srl	%g1, 16, %i5
	lduh	[%fp-6], %g1
	sll	%g1, 16, %g1
	srl	%g1, 16, %g4
	lduh	[%fp-8], %g1
	sll	%g1, 16, %g1
	srl	%g1, 16, %g3
	add	%fp, -16, %g2
	add	%fp, -18, %g1
	add	%fp, -20, %i3
	st	%i3, [%sp+92]
	mov	%i4, %o0
	mov	%i5, %o1
	mov	%g4, %o2
	mov	%g3, %o3
	mov	%g2, %o4
	mov	%g1, %o5
	call	addr_gen, 0
	 nop
	.loc 1 75 0 discriminator 2
	lduh	[%fp-20], %g1
	sll	%g1, 16, %g1
	srl	%g1, 16, %g1
	add	%g1, %g1, %g1
	ld	[%fp+72], %g2
	add	%g2, %g1, %g1
	lduh	[%g1], %g1
	sth	%g1, [%fp-10]
	.loc 1 76 0 discriminator 2
	lduh	[%fp-16], %g1
	sll	%g1, 16, %g1
	srl	%g1, 16, %g1
	add	%g1, %g1, %g1
	ld	[%fp+68], %g2
	add	%g2, %g1, %g1
	lduh	[%g1], %g1
	sth	%g1, [%fp-12]
	.loc 1 77 0 discriminator 2
	lduh	[%fp-18], %g1
	sll	%g1, 16, %g1
	srl	%g1, 16, %g1
	add	%g1, %g1, %g1
	ld	[%fp+68], %g2
	add	%g2, %g1, %g1
	lduh	[%g1], %g1
	sth	%g1, [%fp-14]
	.loc 1 79 0 discriminator 2
	lduh	[%fp-10], %g1
	sll	%g1, 16, %g1
	srl	%g1, 16, %i5
	lduh	[%fp-12], %g1
	sll	%g1, 16, %g1
	srl	%g1, 16, %g4
	lduh	[%fp-14], %g1
	sll	%g1, 16, %g1
	srl	%g1, 16, %g3
	add	%fp, -22, %g2
	add	%fp, -24, %g1
	mov	%i5, %o0
	mov	%g4, %o1
	mov	%g3, %o2
	mov	%g2, %o3
	mov	%g1, %o4
	call	butterfly_dit, 0
	 nop
	.loc 1 80 0 discriminator 2
	lduh	[%fp-16], %g1
	sll	%g1, 16, %g1
	srl	%g1, 16, %g1
	add	%g1, %g1, %g1
	ld	[%fp+68], %g2
	add	%g2, %g1, %g1
	lduh	[%fp-22], %g2
	sth	%g2, [%g1]
	.loc 1 81 0 discriminator 2
	lduh	[%fp-18], %g1
	sll	%g1, 16, %g1
	srl	%g1, 16, %g1
	add	%g1, %g1, %g1
	ld	[%fp+68], %g2
	add	%g2, %g1, %g1
	lduh	[%fp-24], %g2
	sth	%g2, [%g1]
.LBE2:
	.loc 1 72 0 discriminator 2
	lduh	[%fp-4], %g1
	add	%g1, 1, %g1
	sth	%g1, [%fp-4]
.L13:
	.loc 1 72 0 is_stmt 0 discriminator 1
	lduh	[%fp-4], %g1
	sll	%g1, 16, %g1
	srl	%g1, 16, %g2
	lduh	[%fp-8], %g1
	sll	%g1, 16, %g1
	srl	%g1, 16, %g1
	cmp	%g2, %g1
	blu	.L14
	 nop
	.loc 1 71 0 is_stmt 1
	lduh	[%fp-2], %g1
	add	%g1, 1, %g1
	sth	%g1, [%fp-2]
.L12:
	.loc 1 71 0 is_stmt 0 discriminator 1
	lduh	[%fp-2], %g1
	sll	%g1, 16, %g1
	srl	%g1, 16, %g2
	lduh	[%fp-6], %g1
	sll	%g1, 16, %g1
	srl	%g1, 16, %g1
	cmp	%g2, %g1
	blu	.L15
	 nop
	.loc 1 84 0 is_stmt 1
	restore
	jmp	%o7+8
	 nop
	.cfi_endproc
.LFE7:
	.size	ct_ntt, .-ct_ntt
	.section	".rodata"
	.align 8
.LC1:
	.long	1080033280
	.long	0
	.section	".text"
	.align 4
	.global gen_tf
	.type	gen_tf, #function
	.proc	020
gen_tf:
.LFB8:
	.loc 1 88 0
	.cfi_startproc
	save	%sp, -888, %sp
.LCFI5:
	.cfi_window_save
	.cfi_register 15, 31
	.cfi_def_cfa_register 30
	st	%i0, [%fp+68]
	st	%i1, [%fp+72]
	.loc 1 89 0
	sethi	%hi(.LC1), %g1
	or	%g1, %lo(.LC1), %g1
	ldd	[%g1], %f8
	std	%f8, [%fp-784]
	ldd	[%fp-784], %o0
	call	log2, 0
	 nop
	fmovs	%f0, %f8
	fmovs	%f1, %f9
	fdtoi	%f8, %f10
	st	%f10, [%fp-788]
	ld	[%fp-788], %g1
	sth	%g1, [%fp-8]
	.loc 1 92 0
	sth	%g0, [%fp-2]
	b	.L17
	 nop
.L18:
	.loc 1 93 0 discriminator 2
	lduh	[%fp-2], %g1
	sll	%g1, 16, %g1
	srl	%g1, 16, %i3
	lduh	[%fp-2], %g1
	sll	%g1, 16, %g1
	srl	%g1, 16, %g2
	lduh	[%fp-8], %g1
	sll	%g1, 16, %g1
	srl	%g1, 16, %g1
	mov	%g2, %o0
	mov	%g1, %o1
	call	bit_reverse, 0
	 nop
	mov	%o0, %g1
	mov	%g1, %g2
	add	%i3, %i3, %g1
	add	%fp, %g1, %g1
	sth	%g2, [%g1-776]
	.loc 1 92 0 discriminator 2
	lduh	[%fp-2], %g1
	add	%g1, 1, %g1
	sth	%g1, [%fp-2]
.L17:
	.loc 1 92 0 is_stmt 0 discriminator 1
	lduh	[%fp-2], %g1
	sll	%g1, 16, %g1
	srl	%g1, 16, %g1
	cmp	%g1, 127
	bleu	.L18
	 nop
	.loc 1 96 0 is_stmt 1
	mov	1, %g1
	sth	%g1, [%fp-4]
	mov	1, %g1
	sth	%g1, [%fp-6]
	.loc 1 97 0
	sth	%g0, [%fp-2]
	b	.L19
	 nop
.L20:
	.loc 1 98 0 discriminator 2
	lduh	[%fp-2], %g1
	sll	%g1, 16, %g1
	srl	%g1, 16, %g1
	add	%g1, %g1, %g1
	add	%fp, %g1, %g1
	lduh	[%fp-4], %g2
	sth	%g2, [%g1-264]
	.loc 1 99 0 discriminator 2
	lduh	[%fp-2], %g1
	sll	%g1, 16, %g1
	srl	%g1, 16, %g1
	add	%g1, %g1, %g1
	add	%fp, %g1, %g1
	lduh	[%fp-6], %g2
	sth	%g2, [%g1-520]
	.loc 1 100 0 discriminator 2
	lduh	[%fp-4], %g1
	sll	%g1, 16, %g1
	srl	%g1, 16, %g1
	mov	0, %i2
	mov	%g1, %i3
	mov	%i2, %g2
	mov	%i3, %g3
	srl	%g3, 28, %g1
	sll	%g2, 4, %i4
	or	%g1, %i4, %i4
	sll	%g3, 4, %i5
	mov	%i4, %g2
	mov	%i5, %g3
	addcc	%g3, %i3, %i1
	addx	%g2, %i2, %i0
	mov	%i0, %o0
	mov	%i1, %o1
	mov	0, %o2
	mov	3329, %o3
	call	__umoddi3, 0
	 nop
	mov	%o0, %g2
	mov	%o1, %g3
	sth	%g3, [%fp-4]
	.loc 1 101 0 discriminator 2
	lduh	[%fp-6], %g1
	sll	%g1, 16, %g1
	srl	%g1, 16, %g1
	mov	0, %g2
	mov	%g1, %g3
	smul	%g2, 1175, %g4
	smul	%g3, 0, %g1
	add	%g4, %g1, %g1
	umul	%g3, 1175, %g3
	rd	%y, %g2
	add	%g1, %g2, %g1
	mov	%g1, %g2
	mov	%g2, %o0
	mov	%g3, %o1
	mov	0, %o2
	mov	3329, %o3
	call	__umoddi3, 0
	 nop
	mov	%o0, %g2
	mov	%o1, %g3
	sth	%g3, [%fp-6]
	.loc 1 97 0 discriminator 2
	lduh	[%fp-2], %g1
	add	%g1, 1, %g1
	sth	%g1, [%fp-2]
.L19:
	.loc 1 97 0 is_stmt 0 discriminator 1
	lduh	[%fp-2], %g1
	sll	%g1, 16, %g1
	srl	%g1, 16, %g1
	cmp	%g1, 127
	bleu	.L20
	 nop
	.loc 1 104 0 is_stmt 1
	sth	%g0, [%fp-2]
	b	.L21
	 nop
.L22:
	.loc 1 105 0 discriminator 2
	lduh	[%fp-2], %g1
	sll	%g1, 16, %g1
	srl	%g1, 16, %g1
	add	%g1, %g1, %g1
	ld	[%fp+68], %g2
	add	%g2, %g1, %g2
	lduh	[%fp-2], %g1
	sll	%g1, 16, %g1
	srl	%g1, 16, %g1
	add	%g1, %g1, %g1
	add	%fp, %g1, %g1
	lduh	[%g1-776], %g1
	sll	%g1, 16, %g1
	srl	%g1, 16, %g1
	add	%g1, %g1, %g1
	add	%fp, %g1, %g1
	lduh	[%g1-264], %g1
	sth	%g1, [%g2]
	.loc 1 106 0 discriminator 2
	lduh	[%fp-2], %g1
	sll	%g1, 16, %g1
	srl	%g1, 16, %g1
	add	%g1, %g1, %g1
	ld	[%fp+72], %g2
	add	%g2, %g1, %g2
	lduh	[%fp-2], %g1
	sll	%g1, 16, %g1
	srl	%g1, 16, %g1
	add	%g1, %g1, %g1
	add	%fp, %g1, %g1
	lduh	[%g1-776], %g1
	sll	%g1, 16, %g1
	srl	%g1, 16, %g1
	add	%g1, %g1, %g1
	add	%fp, %g1, %g1
	lduh	[%g1-520], %g1
	sth	%g1, [%g2]
	.loc 1 104 0 discriminator 2
	lduh	[%fp-2], %g1
	add	%g1, 1, %g1
	sth	%g1, [%fp-2]
.L21:
	.loc 1 104 0 is_stmt 0 discriminator 1
	lduh	[%fp-2], %g1
	sll	%g1, 16, %g1
	srl	%g1, 16, %g1
	cmp	%g1, 127
	bleu	.L22
	 nop
	.loc 1 123 0 is_stmt 1
	restore
	jmp	%o7+8
	 nop
	.cfi_endproc
.LFE8:
	.size	gen_tf, .-gen_tf
	.align 4
	.global ntt_256
	.type	ntt_256, #function
	.proc	020
ntt_256:
.LFB9:
	.loc 1 126 0
	.cfi_startproc
	save	%sp, -616, %sp
.LCFI6:
	.cfi_window_save
	.cfi_register 15, 31
	.cfi_def_cfa_register 30
	st	%i0, [%fp+68]
	st	%i1, [%fp+72]
	.loc 1 129 0
	sth	%g0, [%fp-2]
	b	.L24
	 nop
.L25:
	.loc 1 130 0 discriminator 2
	lduh	[%fp-2], %g1
	sll	%g1, 16, %g1
	srl	%g1, 16, %g1
	lduh	[%fp-2], %g2
	sll	%g2, 16, %g2
	srl	%g2, 16, %g2
	sll	%g2, 2, %g2
	ld	[%fp+68], %g3
	add	%g3, %g2, %g2
	lduh	[%g2], %g2
	add	%g1, %g1, %g1
	add	%fp, %g1, %g1
	sth	%g2, [%g1-258]
	.loc 1 131 0 discriminator 2
	lduh	[%fp-2], %g1
	sll	%g1, 16, %g1
	srl	%g1, 16, %g1
	lduh	[%fp-2], %g2
	sll	%g2, 16, %g2
	srl	%g2, 16, %g2
	sll	%g2, 2, %g2
	add	%g2, 2, %g2
	ld	[%fp+68], %g3
	add	%g3, %g2, %g2
	lduh	[%g2], %g2
	add	%g1, %g1, %g1
	add	%fp, %g1, %g1
	sth	%g2, [%g1-514]
	.loc 1 129 0 discriminator 2
	lduh	[%fp-2], %g1
	add	%g1, 1, %g1
	sth	%g1, [%fp-2]
.L24:
	.loc 1 129 0 is_stmt 0 discriminator 1
	lduh	[%fp-2], %g1
	sll	%g1, 16, %g1
	srl	%g1, 16, %g1
	cmp	%g1, 127
	bleu	.L25
	 nop
	.loc 1 133 0 is_stmt 1
	add	%fp, -258, %g1
	mov	%g1, %o0
	ld	[%fp+72], %o1
	call	ct_ntt, 0
	 nop
	.loc 1 134 0
	add	%fp, -514, %g1
	mov	%g1, %o0
	ld	[%fp+72], %o1
	call	ct_ntt, 0
	 nop
	.loc 1 135 0
	sth	%g0, [%fp-2]
	b	.L26
	 nop
.L27:
	.loc 1 136 0 discriminator 2
	lduh	[%fp-2], %g1
	sll	%g1, 16, %g1
	srl	%g1, 16, %g1
	add	%g1, %g1, %g1
	ld	[%fp+68], %g2
	add	%g2, %g1, %g2
	lduh	[%fp-2], %g1
	sll	%g1, 16, %g1
	srl	%g1, 16, %g1
	add	%g1, %g1, %g1
	add	%fp, %g1, %g1
	lduh	[%g1-258], %g1
	sth	%g1, [%g2]
	.loc 1 137 0 discriminator 2
	lduh	[%fp-2], %g1
	sll	%g1, 16, %g1
	srl	%g1, 16, %g1
	add	%g1, 128, %g1
	add	%g1, %g1, %g1
	ld	[%fp+68], %g2
	add	%g2, %g1, %g2
	lduh	[%fp-2], %g1
	sll	%g1, 16, %g1
	srl	%g1, 16, %g1
	add	%g1, %g1, %g1
	add	%fp, %g1, %g1
	lduh	[%g1-514], %g1
	sth	%g1, [%g2]
	.loc 1 135 0 discriminator 2
	lduh	[%fp-2], %g1
	add	%g1, 1, %g1
	sth	%g1, [%fp-2]
.L26:
	.loc 1 135 0 is_stmt 0 discriminator 1
	lduh	[%fp-2], %g1
	sll	%g1, 16, %g1
	srl	%g1, 16, %g1
	cmp	%g1, 127
	bleu	.L27
	 nop
	.loc 1 140 0 is_stmt 1
	restore
	jmp	%o7+8
	 nop
	.cfi_endproc
.LFE9:
	.size	ntt_256, .-ntt_256
.Letext0:
	.file 2 "/home/ajit/ajit-toolchain/build/buildroot-2014.08/output/host/usr/lib/gcc/sparc-buildroot-linux-uclibc/4.7.4/include/stdint-gcc.h"
	.section	.note.GNU-stack,"",@progbits
