	.file	"thread_channel.c"
	.section	".text"
.Ltext0:
	.cfi_sections	.debug_frame
	.align 4
	.global initChannel
	.type	initChannel, #function
	.proc	020
initChannel:
.LFB3:
	.file 1 "/home/ajit/ajit-toolchain/application_development/thread_channel/src/thread_channel.c"
	.loc 1 12 0
	.cfi_startproc
	save	%sp, -96, %sp
.LCFI0:
	.cfi_window_save
	.cfi_register 15, 31
	.cfi_def_cfa_register 30
	st	%i0, [%fp+68]
	st	%i1, [%fp+72]
	.loc 1 13 0
	ld	[%fp+68], %g1
	ld	[%fp+72], %g2
	st	%g2, [%g1]
	.loc 1 14 0
	ld	[%fp+68], %g1
	st	%g0, [%g1+4]
	.loc 1 15 0
	ld	[%fp+68], %g1
	st	%g0, [%g1+8]
	.loc 1 16 0
	ld	[%fp+68], %g1
	st	%g0, [%g1+12]
	.loc 1 17 0
	ld	[%fp+68], %g1
	st	%g0, [%g1+16]
	.loc 1 18 0
	ld	[%fp+68], %g1
	mov	1, %g2
	st	%g2, [%g1+20]
	.loc 1 19 0
	restore
	jmp	%o7+8
	 nop
	.cfi_endproc
.LFE3:
	.size	initChannel, .-initChannel
	.section	".rodata"
	.align 8
.LC0:
	.asciz	"DEBUG"
	.align 8
.LC1:
	.asciz	"/home/ajit/ajit-toolchain/application_development/thread_channel/src/thread_channel.c"
	.align 8
.LC2:
	.asciz	"Channel %d: status = %d.\n"
	.section	".text"
	.align 4
	.global scheduleChannelJob
	.type	scheduleChannelJob, #function
	.proc	016
scheduleChannelJob:
.LFB4:
	.loc 1 24 0
	.cfi_startproc
	save	%sp, -112, %sp
.LCFI1:
	.cfi_window_save
	.cfi_register 15, 31
	.cfi_def_cfa_register 30
	st	%i0, [%fp+68]
	st	%i1, [%fp+72]
	st	%i2, [%fp+76]
	.loc 1 25 0
	mov	1, %g1
	st	%g1, [%fp-4]
	.loc 1 26 0
	ld	[%fp+68], %g1
	ld	[%g1+20], %g1
	cmp	%g1, 1
	bne	.L3
	 nop
	.loc 1 28 0
	ld	[%fp+68], %g1
	ld	[%g1+4], %g1
	add	%g1, 1, %g2
	ld	[%fp+68], %g1
	st	%g2, [%g1+4]
	.loc 1 29 0
	ld	[%fp+68], %g1
	ld	[%fp+72], %g2
	st	%g2, [%g1+12]
	.loc 1 30 0
	ld	[%fp+68], %g1
	ld	[%fp+76], %g2
	st	%g2, [%g1+16]
	.loc 1 31 0
	ld	[%fp+68], %g1
	mov	2, %g2
	st	%g2, [%g1+20]
	.loc 1 33 0
	ld	[%fp+68], %g1
	ld	[%g1], %g1
	ld	[%fp+68], %g2
	ld	[%g2+20], %g2
	st	%g2, [%sp+92]
	sethi	%hi(.LC0), %g2
	or	%g2, %lo(.LC0), %o0
	sethi	%hi(.LC1), %g2
	or	%g2, %lo(.LC1), %o1
	sethi	%hi(__func__.2530), %g2
	or	%g2, %lo(__func__.2530), %o2
	mov	33, %o3
	sethi	%hi(.LC2), %g2
	or	%g2, %lo(.LC2), %o4
	mov	%g1, %o5
	call	__cortos_log_printf, 0
	 nop
	.loc 1 35 0
	st	%g0, [%fp-4]
.L3:
	.loc 1 37 0
	ld	[%fp-4], %g1
	.loc 1 38 0
	mov	%g1, %i0
	restore
	jmp	%o7+8
	 nop
	.cfi_endproc
.LFE4:
	.size	scheduleChannelJob, .-scheduleChannelJob
	.align 4
	.global setChannelResponse
	.type	setChannelResponse, #function
	.proc	016
setChannelResponse:
.LFB5:
	.loc 1 42 0
	.cfi_startproc
	save	%sp, -112, %sp
.LCFI2:
	.cfi_window_save
	.cfi_register 15, 31
	.cfi_def_cfa_register 30
	st	%i0, [%fp+68]
	st	%i1, [%fp+72]
	.loc 1 43 0
	mov	1, %g1
	st	%g1, [%fp-4]
	.loc 1 44 0
	ld	[%fp+68], %g1
	ld	[%g1+20], %g1
	cmp	%g1, 3
	bne	.L6
	 nop
	.loc 1 46 0
	ld	[%fp+68], %g1
	ld	[%fp+72], %g2
	st	%g2, [%g1+16]
	.loc 1 47 0
	ld	[%fp+68], %g1
	ld	[%g1+8], %g1
	add	%g1, 1, %g2
	ld	[%fp+68], %g1
	st	%g2, [%g1+8]
	.loc 1 48 0
	ld	[%fp+68], %g1
	mov	4, %g2
	st	%g2, [%g1+20]
	.loc 1 50 0
	ld	[%fp+68], %g1
	ld	[%g1], %g1
	ld	[%fp+68], %g2
	ld	[%g2+20], %g2
	st	%g2, [%sp+92]
	sethi	%hi(.LC0), %g2
	or	%g2, %lo(.LC0), %o0
	sethi	%hi(.LC1), %g2
	or	%g2, %lo(.LC1), %o1
	sethi	%hi(__func__.2536), %g2
	or	%g2, %lo(__func__.2536), %o2
	mov	50, %o3
	sethi	%hi(.LC2), %g2
	or	%g2, %lo(.LC2), %o4
	mov	%g1, %o5
	call	__cortos_log_printf, 0
	 nop
	.loc 1 52 0
	st	%g0, [%fp-4]
.L6:
	.loc 1 54 0
	ld	[%fp-4], %g1
	.loc 1 55 0
	mov	%g1, %i0
	restore
	jmp	%o7+8
	 nop
	.cfi_endproc
.LFE5:
	.size	setChannelResponse, .-setChannelResponse
	.align 4
	.global getChannelResponse
	.type	getChannelResponse, #function
	.proc	016
getChannelResponse:
.LFB6:
	.loc 1 59 0
	.cfi_startproc
	save	%sp, -112, %sp
.LCFI3:
	.cfi_window_save
	.cfi_register 15, 31
	.cfi_def_cfa_register 30
	st	%i0, [%fp+68]
	st	%i1, [%fp+72]
	.loc 1 60 0
	mov	1, %g1
	st	%g1, [%fp-4]
	.loc 1 61 0
	ld	[%fp+68], %g1
	ld	[%g1+20], %g1
	cmp	%g1, 4
	bne	.L9
	 nop
	.loc 1 63 0
	ld	[%fp+68], %g1
	ld	[%g1+16], %g2
	ld	[%fp+72], %g1
	st	%g2, [%g1]
	.loc 1 65 0
	ld	[%fp+68], %g1
	st	%g0, [%g1+12]
	.loc 1 66 0
	ld	[%fp+68], %g1
	st	%g0, [%g1+16]
	.loc 1 67 0
	ld	[%fp+68], %g1
	mov	1, %g2
	st	%g2, [%g1+20]
	.loc 1 70 0
	ld	[%fp+68], %g1
	ld	[%g1], %g1
	ld	[%fp+68], %g2
	ld	[%g2+20], %g2
	st	%g2, [%sp+92]
	sethi	%hi(.LC0), %g2
	or	%g2, %lo(.LC0), %o0
	sethi	%hi(.LC1), %g2
	or	%g2, %lo(.LC1), %o1
	sethi	%hi(__func__.2542), %g2
	or	%g2, %lo(__func__.2542), %o2
	mov	70, %o3
	sethi	%hi(.LC2), %g2
	or	%g2, %lo(.LC2), %o4
	mov	%g1, %o5
	call	__cortos_log_printf, 0
	 nop
	.loc 1 72 0
	st	%g0, [%fp-4]
.L9:
	.loc 1 74 0
	ld	[%fp-4], %g1
	.loc 1 75 0
	mov	%g1, %i0
	restore
	jmp	%o7+8
	 nop
	.cfi_endproc
.LFE6:
	.size	getChannelResponse, .-getChannelResponse
	.align 4
	.global getChannelJob
	.type	getChannelJob, #function
	.proc	016
getChannelJob:
.LFB7:
	.loc 1 79 0
	.cfi_startproc
	save	%sp, -112, %sp
.LCFI4:
	.cfi_window_save
	.cfi_register 15, 31
	.cfi_def_cfa_register 30
	st	%i0, [%fp+68]
	st	%i1, [%fp+72]
	st	%i2, [%fp+76]
	.loc 1 80 0
	mov	1, %g1
	st	%g1, [%fp-4]
	.loc 1 81 0
	ld	[%fp+68], %g1
	ld	[%g1+20], %g1
	cmp	%g1, 2
	bne	.L12
	 nop
	.loc 1 83 0
	ld	[%fp+68], %g1
	ld	[%g1+12], %g2
	ld	[%fp+72], %g1
	st	%g2, [%g1]
	.loc 1 84 0
	ld	[%fp+68], %g1
	ld	[%g1+16], %g2
	ld	[%fp+76], %g1
	st	%g2, [%g1]
	.loc 1 85 0
	ld	[%fp+68], %g1
	mov	3, %g2
	st	%g2, [%g1+20]
	.loc 1 87 0
	ld	[%fp+68], %g1
	ld	[%g1], %g1
	ld	[%fp+68], %g2
	ld	[%g2+20], %g2
	st	%g2, [%sp+92]
	sethi	%hi(.LC0), %g2
	or	%g2, %lo(.LC0), %o0
	sethi	%hi(.LC1), %g2
	or	%g2, %lo(.LC1), %o1
	sethi	%hi(__func__.2549), %g2
	or	%g2, %lo(__func__.2549), %o2
	mov	87, %o3
	sethi	%hi(.LC2), %g2
	or	%g2, %lo(.LC2), %o4
	mov	%g1, %o5
	call	__cortos_log_printf, 0
	 nop
	.loc 1 89 0
	st	%g0, [%fp-4]
.L12:
	.loc 1 91 0
	ld	[%fp-4], %g1
	.loc 1 92 0
	mov	%g1, %i0
	restore
	jmp	%o7+8
	 nop
	.cfi_endproc
.LFE7:
	.size	getChannelJob, .-getChannelJob
	.section	".rodata"
	.align 8
	.type	__func__.2549, #object
	.size	__func__.2549, 14
__func__.2549:
	.asciz	"getChannelJob"
	.align 8
	.type	__func__.2542, #object
	.size	__func__.2542, 19
__func__.2542:
	.asciz	"getChannelResponse"
	.align 8
	.type	__func__.2536, #object
	.size	__func__.2536, 19
__func__.2536:
	.asciz	"setChannelResponse"
	.align 8
	.type	__func__.2530, #object
	.size	__func__.2530, 19
__func__.2530:
	.asciz	"scheduleChannelJob"
	.section	".text"
.Letext0:
	.file 2 "/home/ajit/ajit-toolchain/application_development/thread_channel/include/thread_channel.h"
	.file 3 "/home/ajit/ajit-toolchain/build/buildroot-2014.08/output/host/usr/lib/gcc/sparc-buildroot-linux-uclibc/4.7.4/include/stdint-gcc.h"
	.section	.note.GNU-stack,"",@progbits
